; Function Attrs: mustprogress uwtable
define void @_ZN15VoipCallsDialog18removeTapListenersEv(ptr noundef nonnull align 8 dereferenceable(480) %0) unnamed_addr #0 align 2 {
  %2 = getelementptr inbounds i8, ptr %0, i64 464
  %3 = load i8, ptr %2, align 8
  %4 = and i8 %3, 1
  %.not = icmp eq i8 %4, 0
  br i1 %.not, label %5, label %7

5:                                                ; preds = %1
  %6 = getelementptr inbounds i8, ptr %0, i64 176
  tail call void @voip_calls_remove_all_tap_listeners(ptr noundef nonnull %6)
  store i8 1, ptr %2, align 8
  br label %7

7:                                                ; preds = %5, %1
  tail call void @_ZN15WiresharkDialog18removeTapListenersEv(ptr noundef nonnull align 8 dereferenceable(133) %0)
  ret void
}